target datalayout = "e-m:e-p270:32:32-p271:32:32-p272:64:64-i64:64-i128:128-f80:128-n8:16:32:64-S128"
target triple = "x86_64-pc-linux-gnu"

%"struct.folly::detail::safe_assert_terminate_w" = type { ptr }
%"struct.folly::detail::safe_assert_msg_cast_one_fn" = type { i8 }
%"class.folly::symbolizer::ElfFile" = type { [512 x i8], i32, ptr, i64, %"struct.folly::symbolizer::ElfFileId", i64 }
%"struct.folly::symbolizer::ElfFileId" = type { i64, i64, i64, i64 }
%struct.Elf64_Ehdr = type { [16 x i8], i16, i16, i32, i64, i64, i64, i32, i16, i16, i16, i16, i16, i16 }
%struct.Elf64_Shdr = type { i32, i32, i64, i64, i64, i64, i32, i32, i64, i64 }
%class.anon.12 = type { ptr }

@_ZN5folly6detail24safe_assert_msg_cast_oneE = linkonce_odr constant %"struct.folly::detail::safe_assert_msg_cast_one_fn" undef, comdat, align 1
@__const._ZNK5folly10symbolizer7ElfFile2atI10Elf64_EhdrEERKT_m.__folly_detail_safe_assert_terminate_w = private unnamed_addr constant %"struct.folly::detail::safe_assert_terminate_w" { ptr @_ZZNK5folly10symbolizer7ElfFile2atI10Elf64_EhdrEERKT_mE30__folly_detail_safe_assert_arg }, align 8
@.str.29 = private unnamed_addr constant [9 x i8] c"Offset (\00", align 1
@.str.30 = private unnamed_addr constant [4 x i8] c" + \00", align 1
@.str.31 = private unnamed_addr constant [44 x i8] c") is not contained within our mapped file (\00", align 1
@.str.32 = private unnamed_addr constant [13 x i8] c") of length \00", align 1
@__const._ZNK5folly10symbolizer7ElfFile2atI10Elf64_ShdrEERKT_m.__folly_detail_safe_assert_terminate_w = private unnamed_addr constant %"struct.folly::detail::safe_assert_terminate_w" { ptr @_ZZNK5folly10symbolizer7ElfFile2atI10Elf64_ShdrEERKT_mE30__folly_detail_safe_assert_arg }, align 8

; Function Attrs: alwaysinline mustprogress nounwind uwtable
define linkonce_odr hidden noundef i64 @_ZNK5folly6detail27safe_assert_msg_cast_one_fnclEm(ptr noundef nonnull align 1 dereferenceable(1) %0, i64 noundef %1) #21 comdat align 2 {
  %3 = alloca ptr, align 8
  %4 = alloca i64, align 8
  store ptr %0, ptr %3, align 8, !tbaa !126
  store i64 %1, ptr %4, align 8, !tbaa !37
  %5 = load i64, ptr %4, align 8, !tbaa !37
  ret i64 %5
}

; Function Attrs: alwaysinline mustprogress nounwind uwtable
define linkonce_odr hidden noundef ptr @_ZNK5folly6detail27safe_assert_msg_cast_one_fnclEPKc(ptr noundef nonnull align 1 dereferenceable(1) %0, ptr noundef %1) #21 comdat align 2 {
  %3 = alloca ptr, align 8
  %4 = alloca ptr, align 8
  store ptr %0, ptr %3, align 8, !tbaa !126
  store ptr %1, ptr %4, align 8, !tbaa !22
  %5 = load ptr, ptr %4, align 8, !tbaa !22
  ret ptr %5
}

; Function Attrs: alwaysinline mustprogress noreturn nounwind uwtable
define linkonce_odr void @_ZNK5folly6detail23safe_assert_terminate_wILb0EEclIJPKcmS5_mS5_S5_S5_mEEEvDpT_(ptr noundef nonnull align 8 dereferenceable(8) %0, ptr noundef %1, i64 noundef %2, ptr noundef %3, i64 noundef %4, ptr noundef %5, ptr noundef %6, ptr noundef %7, i64 noundef %8) #19 comdat align 2 personality ptr @__gxx_personality_v0 {
  %10 = alloca ptr, align 8
  %11 = alloca ptr, align 8
  %12 = alloca i64, align 8
  %13 = alloca ptr, align 8
  %14 = alloca i64, align 8
  %15 = alloca ptr, align 8
  %16 = alloca ptr, align 8
  %17 = alloca ptr, align 8
  %18 = alloca i64, align 8
  store ptr %0, ptr %10, align 8, !tbaa !104
  store ptr %1, ptr %11, align 8, !tbaa !22
  store i64 %2, ptr %12, align 8, !tbaa !37
  store ptr %3, ptr %13, align 8, !tbaa !22
  store i64 %4, ptr %14, align 8, !tbaa !37
  store ptr %5, ptr %15, align 8, !tbaa !22
  store ptr %6, ptr %16, align 8, !tbaa !22
  store ptr %7, ptr %17, align 8, !tbaa !22
  store i64 %8, ptr %18, align 8, !tbaa !37
  %19 = load ptr, ptr %10, align 8
  %20 = getelementptr inbounds nuw %"struct.folly::detail::safe_assert_terminate_w", ptr %19, i32 0, i32 0
  %21 = load ptr, ptr %20, align 8, !tbaa !106
  %22 = load ptr, ptr %11, align 8, !tbaa !22
  %23 = call noundef ptr @_ZNK5folly6detail27safe_assert_msg_cast_one_fnclEPKc(ptr noundef nonnull align 1 dereferenceable(1) @_ZN5folly6detail24safe_assert_msg_cast_oneE, ptr noundef %22)
  %24 = load i64, ptr %12, align 8, !tbaa !37
  %25 = invoke noundef i64 @_ZNK5folly6detail27safe_assert_msg_cast_one_fnclEm(ptr noundef nonnull align 1 dereferenceable(1) @_ZN5folly6detail24safe_assert_msg_cast_oneE, i64 noundef %24)
          to label %26 unwind label %41

26:                                               ; preds = %9
  %27 = load ptr, ptr %13, align 8, !tbaa !22
  %28 = call noundef ptr @_ZNK5folly6detail27safe_assert_msg_cast_one_fnclEPKc(ptr noundef nonnull align 1 dereferenceable(1) @_ZN5folly6detail24safe_assert_msg_cast_oneE, ptr noundef %27)
  %29 = load i64, ptr %14, align 8, !tbaa !37
  %30 = invoke noundef i64 @_ZNK5folly6detail27safe_assert_msg_cast_one_fnclEm(ptr noundef nonnull align 1 dereferenceable(1) @_ZN5folly6detail24safe_assert_msg_cast_oneE, i64 noundef %29)
          to label %31 unwind label %41

31:                                               ; preds = %26
  %32 = load ptr, ptr %15, align 8, !tbaa !22
  %33 = call noundef ptr @_ZNK5folly6detail27safe_assert_msg_cast_one_fnclEPKc(ptr noundef nonnull align 1 dereferenceable(1) @_ZN5folly6detail24safe_assert_msg_cast_oneE, ptr noundef %32)
  %34 = load ptr, ptr %16, align 8, !tbaa !22
  %35 = call noundef ptr @_ZNK5folly6detail27safe_assert_msg_cast_one_fnclEPKc(ptr noundef nonnull align 1 dereferenceable(1) @_ZN5folly6detail24safe_assert_msg_cast_oneE, ptr noundef %34)
  %36 = load ptr, ptr %17, align 8, !tbaa !22
  %37 = call noundef ptr @_ZNK5folly6detail27safe_assert_msg_cast_one_fnclEPKc(ptr noundef nonnull align 1 dereferenceable(1) @_ZN5folly6detail24safe_assert_msg_cast_oneE, ptr noundef %36)
  %38 = load i64, ptr %18, align 8, !tbaa !37
  %39 = invoke noundef i64 @_ZNK5folly6detail27safe_assert_msg_cast_one_fnclEm(ptr noundef nonnull align 1 dereferenceable(1) @_ZN5folly6detail24safe_assert_msg_cast_oneE, i64 noundef %38)
          to label %40 unwind label %41

40:                                               ; preds = %31
  call void (ptr, ...) @_ZN5folly6detail21safe_assert_terminateILb0EEEvPKNS0_15safe_assert_argEz(ptr noundef %21, ptr noundef %23, i64 noundef %25, ptr noundef %28, i64 noundef %30, ptr noundef %33, ptr noundef %35, ptr noundef %37, i64 noundef %39) #30
  unreachable

41:                                               ; preds = %31, %26, %9
  %42 = landingpad { ptr, i32 }
          catch ptr null
  %43 = extractvalue { ptr, i32 } %42, 0
  call void @__clang_call_terminate(ptr %43) #26
  unreachable
}

; Function Attrs: mustprogress nounwind uwtable
define linkonce_odr noundef nonnull align 8 dereferenceable(64) ptr @_ZNK5folly10symbolizer7ElfFile2atI10Elf64_EhdrEERKT_m(ptr noundef nonnull align 8 dereferenceable(576) %0, i64 noundef %1) #0 comdat align 2 {
  %3 = alloca ptr, align 8
  %4 = alloca i64, align 8
  %5 = alloca %"struct.folly::detail::safe_assert_terminate_w", align 8
  store ptr %0, ptr %3, align 8, !tbaa !7
  store i64 %1, ptr %4, align 8, !tbaa !37
  %6 = load ptr, ptr %3, align 8
  br label %7

7:                                                ; preds = %2
  %8 = load i64, ptr %4, align 8, !tbaa !37
  %9 = add i64 %8, 64
  %10 = getelementptr inbounds nuw %"class.folly::symbolizer::ElfFile", ptr %6, i32 0, i32 3
  %11 = load i64, ptr %10, align 8, !tbaa !20
  %12 = icmp ule i64 %9, %11
  br i1 %12, label %19, label %13

13:                                               ; preds = %7
  call void @llvm.lifetime.start.p0(i64 8, ptr %5) #24
  call void @llvm.memcpy.p0.p0.i64(ptr align 8 %5, ptr align 8 @__const._ZNK5folly10symbolizer7ElfFile2atI10Elf64_EhdrEERKT_m.__folly_detail_safe_assert_terminate_w, i64 8, i1 false)
  %14 = load i64, ptr %4, align 8, !tbaa !37
  %15 = getelementptr inbounds nuw %"class.folly::symbolizer::ElfFile", ptr %6, i32 0, i32 0
  %16 = getelementptr inbounds [512 x i8], ptr %15, i64 0, i64 0
  %17 = getelementptr inbounds nuw %"class.folly::symbolizer::ElfFile", ptr %6, i32 0, i32 3
  %18 = load i64, ptr %17, align 8, !tbaa !20
  call void @_ZNK5folly6detail23safe_assert_terminate_wILb0EEclIJPKcmS5_mS5_S5_S5_mEEEvDpT_(ptr noundef nonnull align 8 dereferenceable(8) %5, ptr noundef @.str.29, i64 noundef %14, ptr noundef @.str.30, i64 noundef 64, ptr noundef @.str.31, ptr noundef %16, ptr noundef @.str.32, i64 noundef %18) #26
  unreachable

19:                                               ; preds = %7
  br label %20

20:                                               ; preds = %19
  br label %21

21:                                               ; preds = %20
  %22 = getelementptr inbounds nuw %"class.folly::symbolizer::ElfFile", ptr %6, i32 0, i32 2
  %23 = load ptr, ptr %22, align 8, !tbaa !19
  %24 = load i64, ptr %4, align 8, !tbaa !37
  %25 = getelementptr inbounds nuw i8, ptr %23, i64 %24
  ret ptr %25
}

; Function Attrs: inlinehint mustprogress nounwind uwtable
define internal noundef zeroext i1 @"_ZZNK5folly10symbolizer7ElfFile27getSectionContainingAddressEmENK3$_0clERK10Elf64_Shdr"(ptr noundef nonnull align 8 dereferenceable(8) %0, ptr noundef nonnull align 8 dereferenceable(64) %1) #6 align 2 {
  %3 = alloca ptr, align 8
  %4 = alloca ptr, align 8
  store ptr %0, ptr %3, align 8, !tbaa !51
  store ptr %1, ptr %4, align 8, !tbaa !51
  %5 = load ptr, ptr %3, align 8
  %6 = getelementptr inbounds nuw %class.anon.12, ptr %5, i32 0, i32 0
  %7 = load ptr, ptr %6, align 8, !tbaa !227
  %8 = load i64, ptr %7, align 8, !tbaa !37
  %9 = load ptr, ptr %4, align 8, !tbaa !51
  %10 = getelementptr inbounds nuw %struct.Elf64_Shdr, ptr %9, i32 0, i32 3
  %11 = load i64, ptr %10, align 8, !tbaa !229
  %12 = icmp uge i64 %8, %11
  br i1 %12, label %13, label %25

13:                                               ; preds = %2
  %14 = getelementptr inbounds nuw %class.anon.12, ptr %5, i32 0, i32 0
  %15 = load ptr, ptr %14, align 8, !tbaa !227
  %16 = load i64, ptr %15, align 8, !tbaa !37
  %17 = load ptr, ptr %4, align 8, !tbaa !51
  %18 = getelementptr inbounds nuw %struct.Elf64_Shdr, ptr %17, i32 0, i32 3
  %19 = load i64, ptr %18, align 8, !tbaa !229
  %20 = load ptr, ptr %4, align 8, !tbaa !51
  %21 = getelementptr inbounds nuw %struct.Elf64_Shdr, ptr %20, i32 0, i32 5
  %22 = load i64, ptr %21, align 8, !tbaa !132
  %23 = add i64 %19, %22
  %24 = icmp ult i64 %16, %23
  br label %25

25:                                               ; preds = %13, %2
  %26 = phi i1 [ false, %2 ], [ %24, %13 ]
  ret i1 %26
}

; Function Attrs: mustprogress nounwind uwtable
define linkonce_odr noundef nonnull align 8 dereferenceable(64) ptr @_ZNK5folly10symbolizer7ElfFile2atI10Elf64_ShdrEERKT_m(ptr noundef nonnull align 8 dereferenceable(576) %0, i64 noundef %1) #0 comdat align 2 {
  %3 = alloca ptr, align 8
  %4 = alloca i64, align 8
  %5 = alloca %"struct.folly::detail::safe_assert_terminate_w", align 8
  store ptr %0, ptr %3, align 8, !tbaa !7
  store i64 %1, ptr %4, align 8, !tbaa !37
  %6 = load ptr, ptr %3, align 8
  br label %7

7:                                                ; preds = %2
  %8 = load i64, ptr %4, align 8, !tbaa !37
  %9 = add i64 %8, 64
  %10 = getelementptr inbounds nuw %"class.folly::symbolizer::ElfFile", ptr %6, i32 0, i32 3
  %11 = load i64, ptr %10, align 8, !tbaa !20
  %12 = icmp ule i64 %9, %11
  br i1 %12, label %19, label %13

13:                                               ; preds = %7
  call void @llvm.lifetime.start.p0(i64 8, ptr %5) #24
  call void @llvm.memcpy.p0.p0.i64(ptr align 8 %5, ptr align 8 @__const._ZNK5folly10symbolizer7ElfFile2atI10Elf64_ShdrEERKT_m.__folly_detail_safe_assert_terminate_w, i64 8, i1 false)
  %14 = load i64, ptr %4, align 8, !tbaa !37
  %15 = getelementptr inbounds nuw %"class.folly::symbolizer::ElfFile", ptr %6, i32 0, i32 0
  %16 = getelementptr inbounds [512 x i8], ptr %15, i64 0, i64 0
  %17 = getelementptr inbounds nuw %"class.folly::symbolizer::ElfFile", ptr %6, i32 0, i32 3
  %18 = load i64, ptr %17, align 8, !tbaa !20
  call void @_ZNK5folly6detail23safe_assert_terminate_wILb0EEclIJPKcmS5_mS5_S5_S5_mEEEvDpT_(ptr noundef nonnull align 8 dereferenceable(8) %5, ptr noundef @.str.29, i64 noundef %14, ptr noundef @.str.30, i64 noundef 64, ptr noundef @.str.31, ptr noundef %16, ptr noundef @.str.32, i64 noundef %18) #26
  unreachable

19:                                               ; preds = %7
  br label %20

20:                                               ; preds = %19
  br label %21

21:                                               ; preds = %20
  %22 = getelementptr inbounds nuw %"class.folly::symbolizer::ElfFile", ptr %6, i32 0, i32 2
  %23 = load ptr, ptr %22, align 8, !tbaa !19
  %24 = load i64, ptr %4, align 8, !tbaa !37
  %25 = getelementptr inbounds nuw i8, ptr %23, i64 %24
  ret ptr %25
}

; Function Attrs: mustprogress nounwind uwtable
define linkonce_odr noundef nonnull align 8 dereferenceable(64) ptr @_ZNK5folly10symbolizer7ElfFile9elfHeaderEv(ptr noundef nonnull align 8 dereferenceable(576) %0) #0 comdat align 2 {
  %2 = alloca ptr, align 8
  store ptr %0, ptr %2, align 8, !tbaa !7
  %3 = load ptr, ptr %2, align 8
  %4 = call noundef nonnull align 8 dereferenceable(64) ptr @_ZNK5folly10symbolizer7ElfFile2atI10Elf64_EhdrEERKT_m(ptr noundef nonnull align 8 dereferenceable(576) %3, i64 noundef 0) #24
  ret ptr %4
}

; Function Attrs: noinline noreturn nounwind uwtable
define linkonce_odr hidden void @__clang_call_terminate(ptr noundef %0) #15 comdat {
  %2 = call ptr @__cxa_begin_catch(ptr %0) #24
  call void @_ZSt9terminatev() #26
  unreachable
}

; Function Attrs: mustprogress uwtable
define internal noundef ptr @"_ZNK5folly10symbolizer7ElfFile15iterateSectionsIZNKS1_27getSectionContainingAddressEmE3$_0EEPK10Elf64_ShdrT_"(ptr noundef nonnull align 8 dereferenceable(576) %0, ptr %1) #2 align 2 {
  %3 = alloca ptr, align 8
  %4 = alloca %class.anon.12, align 8
  %5 = alloca ptr, align 8
  %6 = alloca ptr, align 8
  %7 = alloca i64, align 8
  %8 = alloca i32, align 4
  %9 = getelementptr inbounds nuw %class.anon.12, ptr %4, i32 0, i32 0
  store ptr %1, ptr %9, align 8
  store ptr %0, ptr %5, align 8, !tbaa !7
  %10 = load ptr, ptr %5, align 8
  %11 = call noundef nonnull align 8 dereferenceable(64) ptr @_ZNK5folly10symbolizer7ElfFile9elfHeaderEv(ptr noundef nonnull align 8 dereferenceable(576) %10) #24
  %12 = getelementptr inbounds nuw %struct.Elf64_Ehdr, ptr %11, i32 0, i32 6
  %13 = load i64, ptr %12, align 8, !tbaa !144
  %14 = add i64 %13, 64
  %15 = getelementptr inbounds nuw %"class.folly::symbolizer::ElfFile", ptr %10, i32 0, i32 3
  %16 = load i64, ptr %15, align 8, !tbaa !20
  %17 = icmp uge i64 %14, %16
  br i1 %17, label %18, label %19

18:                                               ; preds = %2
  store ptr null, ptr %3, align 8
  br label %47

19:                                               ; preds = %2
  call void @llvm.lifetime.start.p0(i64 8, ptr %6) #24
  %20 = call noundef nonnull align 8 dereferenceable(64) ptr @_ZNK5folly10symbolizer7ElfFile9elfHeaderEv(ptr noundef nonnull align 8 dereferenceable(576) %10) #24
  %21 = getelementptr inbounds nuw %struct.Elf64_Ehdr, ptr %20, i32 0, i32 6
  %22 = load i64, ptr %21, align 8, !tbaa !144
  %23 = call noundef nonnull align 8 dereferenceable(64) ptr @_ZNK5folly10symbolizer7ElfFile2atI10Elf64_ShdrEERKT_m(ptr noundef nonnull align 8 dereferenceable(576) %10, i64 noundef %22) #24
  store ptr %23, ptr %6, align 8, !tbaa !51
  call void @llvm.lifetime.start.p0(i64 8, ptr %7) #24
  store i64 0, ptr %7, align 8, !tbaa !37
  br label %24

24:                                               ; preds = %38, %19
  %25 = load i64, ptr %7, align 8, !tbaa !37
  %26 = call noundef nonnull align 8 dereferenceable(64) ptr @_ZNK5folly10symbolizer7ElfFile9elfHeaderEv(ptr noundef nonnull align 8 dereferenceable(576) %10) #24
  %27 = getelementptr inbounds nuw %struct.Elf64_Ehdr, ptr %26, i32 0, i32 12
  %28 = load i16, ptr %27, align 4, !tbaa !143
  %29 = zext i16 %28 to i64
  %30 = icmp ult i64 %25, %29
  br i1 %30, label %32, label %31

31:                                               ; preds = %24
  store i32 2, ptr %8, align 4
  br label %43

32:                                               ; preds = %24
  %33 = load ptr, ptr %6, align 8, !tbaa !51
  %34 = call noundef zeroext i1 @"_ZZNK5folly10symbolizer7ElfFile27getSectionContainingAddressEmENK3$_0clERK10Elf64_Shdr"(ptr noundef nonnull align 8 dereferenceable(8) %4, ptr noundef nonnull align 8 dereferenceable(64) %33)
  br i1 %34, label %35, label %37

35:                                               ; preds = %32
  %36 = load ptr, ptr %6, align 8, !tbaa !51
  store ptr %36, ptr %3, align 8
  store i32 1, ptr %8, align 4
  br label %43

37:                                               ; preds = %32
  br label %38

38:                                               ; preds = %37
  %39 = load i64, ptr %7, align 8, !tbaa !37
  %40 = add i64 %39, 1
  store i64 %40, ptr %7, align 8, !tbaa !37
  %41 = load ptr, ptr %6, align 8, !tbaa !51
  %42 = getelementptr inbounds nuw %struct.Elf64_Shdr, ptr %41, i32 1
  store ptr %42, ptr %6, align 8, !tbaa !51
  br label %24, !llvm.loop !226

43:                                               ; preds = %35, %31
  call void @llvm.lifetime.end.p0(i64 8, ptr %7) #24
  %44 = load i32, ptr %8, align 4
  switch i32 %44, label %46 [
    i32 2, label %45
  ]

45:                                               ; preds = %43
  store ptr null, ptr %3, align 8
  store i32 1, ptr %8, align 4
  br label %46

46:                                               ; preds = %45, %43
  call void @llvm.lifetime.end.p0(i64 8, ptr %6) #24
  br label %47

47:                                               ; preds = %46, %18
  %48 = load ptr, ptr %3, align 8
  ret ptr %48
}

; Function Attrs: mustprogress nounwind uwtable
define noundef ptr @_ZNK5folly10symbolizer7ElfFile27getSectionContainingAddressEm(ptr noundef nonnull align 8 dereferenceable(576) %0, i64 noundef %1) #0 align 2 personality ptr @__gxx_personality_v0 {
  %3 = alloca ptr, align 8
  %4 = alloca i64, align 8
  %5 = alloca %class.anon.12, align 8
  store ptr %0, ptr %3, align 8, !tbaa !7
  store i64 %1, ptr %4, align 8, !tbaa !37
  %6 = load ptr, ptr %3, align 8
  %7 = getelementptr inbounds nuw %class.anon.12, ptr %5, i32 0, i32 0
  store ptr %4, ptr %7, align 8, !tbaa !224
  %8 = getelementptr inbounds nuw %class.anon.12, ptr %5, i32 0, i32 0
  %9 = load ptr, ptr %8, align 8
  %10 = invoke noundef ptr @"_ZNK5folly10symbolizer7ElfFile15iterateSectionsIZNKS1_27getSectionContainingAddressEmE3$_0EEPK10Elf64_ShdrT_"(ptr noundef nonnull align 8 dereferenceable(576) %6, ptr %9)
          to label %11 unwind label %12

11:                                               ; preds = %2
  ret ptr %10

12:                                               ; preds = %2
  %13 = landingpad { ptr, i32 }
          catch ptr null
  %14 = extractvalue { ptr, i32 } %13, 0
  call void @__clang_call_terminate(ptr %14) #26
  unreachable
}