; Function Attrs: mustprogress nounwind uwtable
define noundef ptr @_ZNK5folly10symbolizer7ElfFile27getSectionContainingAddressEm(ptr noundef nonnull align 8 dereferenceable(576) %0, i64 noundef %1) local_unnamed_addr #4 align 2 personality ptr @__gxx_personality_v0 {
  %3 = getelementptr inbounds nuw i8, ptr %0, i64 528
  %4 = load i64, ptr %3, align 8, !tbaa !39
  %.not.i.i.i = icmp ult i64 %4, 64
  br i1 %.not.i.i.i, label %5, label %_ZNK5folly10symbolizer7ElfFile9elfHeaderEv.exit.i

5:                                                ; preds = %2
  tail call void (ptr, ...) @_ZN5folly6detail21safe_assert_terminateILb0EEEvPKNS0_15safe_assert_argEz(ptr noundef nonnull @_ZZNK5folly10symbolizer7ElfFile2atI10Elf64_EhdrEERKT_mE30__folly_detail_safe_assert_arg, ptr noundef nonnull @.str.29, i64 noundef 0, ptr noundef nonnull @.str.30, i64 noundef 64, ptr noundef nonnull @.str.31, ptr noundef nonnull align 8 dereferenceable(576) %0, ptr noundef nonnull @.str.32, i64 noundef %4) #30
  unreachable

_ZNK5folly10symbolizer7ElfFile9elfHeaderEv.exit.i: ; preds = %2
  %6 = getelementptr inbounds nuw i8, ptr %0, i64 520
  %7 = load ptr, ptr %6, align 8, !tbaa !17
  %8 = getelementptr inbounds nuw i8, ptr %7, i64 40
  %9 = load i64, ptr %8, align 8, !tbaa !79
  %10 = add i64 %9, 64
  %.not.i = icmp ult i64 %10, %4
  br i1 %.not.i, label %_ZNK5folly10symbolizer7ElfFile2atI10Elf64_ShdrEERKT_m.exit.i, label %"_ZNK5folly10symbolizer7ElfFile15iterateSectionsIZNKS1_27getSectionContainingAddressEmE3$_0EEPK10Elf64_ShdrT_.exit"

_ZNK5folly10symbolizer7ElfFile2atI10Elf64_ShdrEERKT_m.exit.i: ; preds = %_ZNK5folly10symbolizer7ElfFile9elfHeaderEv.exit.i
  %11 = getelementptr inbounds nuw i8, ptr %7, i64 60
  %12 = load i16, ptr %11, align 4, !tbaa !78
  %13 = zext i16 %12 to i64
  %.not1017.not.i = icmp eq i16 %12, 0
  br i1 %.not1017.not.i, label %"_ZNK5folly10symbolizer7ElfFile15iterateSectionsIZNKS1_27getSectionContainingAddressEmE3$_0EEPK10Elf64_ShdrT_.exit", label %.lr.ph.i

.lr.ph.i:                                         ; preds = %_ZNK5folly10symbolizer7ElfFile2atI10Elf64_ShdrEERKT_m.exit.i
  %14 = getelementptr inbounds nuw i8, ptr %7, i64 %9
  br label %15

15:                                               ; preds = %_ZNK5folly10symbolizer7ElfFile9elfHeaderEv.exit15.i, %.lr.ph.i
  %.0719.i = phi i64 [ 0, %.lr.ph.i ], [ %21, %_ZNK5folly10symbolizer7ElfFile9elfHeaderEv.exit15.i ]
  %.0818.i = phi ptr [ %14, %.lr.ph.i ], [ %22, %_ZNK5folly10symbolizer7ElfFile9elfHeaderEv.exit15.i ]
  %16 = getelementptr i8, ptr %.0818.i, i64 16
  %.08.val.i = load i64, ptr %16, align 8, !tbaa !118
  %17 = getelementptr i8, ptr %.0818.i, i64 32
  %.08.val11.i = load i64, ptr %17, align 8
  %.not.i16.i = icmp uge i64 %1, %.08.val.i
  %18 = add i64 %.08.val11.i, %.08.val.i
  %19 = icmp ult i64 %1, %18
  %20 = select i1 %.not.i16.i, i1 %19, i1 false
  br i1 %20, label %"_ZNK5folly10symbolizer7ElfFile15iterateSectionsIZNKS1_27getSectionContainingAddressEmE3$_0EEPK10Elf64_ShdrT_.exit", label %_ZNK5folly10symbolizer7ElfFile9elfHeaderEv.exit15.i

_ZNK5folly10symbolizer7ElfFile9elfHeaderEv.exit15.i: ; preds = %15
  %21 = add nuw nsw i64 %.0719.i, 1
  %22 = getelementptr inbounds nuw i8, ptr %.0818.i, i64 64
  %exitcond.not.i = icmp eq i64 %21, %13
  br i1 %exitcond.not.i, label %"_ZNK5folly10symbolizer7ElfFile15iterateSectionsIZNKS1_27getSectionContainingAddressEmE3$_0EEPK10Elf64_ShdrT_.exit", label %15, !llvm.loop !119

"_ZNK5folly10symbolizer7ElfFile15iterateSectionsIZNKS1_27getSectionContainingAddressEmE3$_0EEPK10Elf64_ShdrT_.exit": ; preds = %_ZNK5folly10symbolizer7ElfFile9elfHeaderEv.exit15.i, %15, %_ZNK5folly10symbolizer7ElfFile2atI10Elf64_ShdrEERKT_m.exit.i, %_ZNK5folly10symbolizer7ElfFile9elfHeaderEv.exit.i
  %.09.i = phi ptr [ null, %_ZNK5folly10symbolizer7ElfFile9elfHeaderEv.exit.i ], [ null, %_ZNK5folly10symbolizer7ElfFile2atI10Elf64_ShdrEERKT_m.exit.i ], [ null, %_ZNK5folly10symbolizer7ElfFile9elfHeaderEv.exit15.i ], [ %.0818.i, %15 ]
  ret ptr %.09.i
}